target datalayout = "e-m:e-p270:32:32-p271:32:32-p272:64:64-i64:64-i128:128-f80:128-n8:16:32:64-S128"
target triple = "x86_64-pc-linux-gnu"

%struct.MD5Context = type { [4 x i32], [2 x i32], [64 x i8] }

; Function Attrs: nounwind uwtable
define dso_local void @MD5Final(ptr noundef %0, ptr noundef %1) #0 {
  %3 = alloca ptr, align 8
  %4 = alloca ptr, align 8
  %5 = alloca i32, align 4
  %6 = alloca ptr, align 8
  %7 = alloca ptr, align 8
  store ptr %0, ptr %3, align 8, !tbaa !11
  store ptr %1, ptr %4, align 8, !tbaa !4
  call void @llvm.lifetime.start.p0(i64 4, ptr %5) #4
  call void @llvm.lifetime.start.p0(i64 8, ptr %6) #4
  call void @llvm.lifetime.start.p0(i64 8, ptr %7) #4
  %8 = load ptr, ptr %4, align 8, !tbaa !4
  %9 = getelementptr inbounds nuw %struct.MD5Context, ptr %8, i32 0, i32 2
  %10 = getelementptr inbounds [64 x i8], ptr %9, i64 0, i64 0
  store ptr %10, ptr %7, align 8, !tbaa !15
  %11 = load ptr, ptr %4, align 8, !tbaa !4
  %12 = getelementptr inbounds nuw %struct.MD5Context, ptr %11, i32 0, i32 1
  %13 = getelementptr inbounds [2 x i32], ptr %12, i64 0, i64 0
  %14 = load i32, ptr %13, align 4, !tbaa !9
  %15 = lshr i32 %14, 3
  %16 = and i32 %15, 63
  store i32 %16, ptr %5, align 4, !tbaa !9
  %17 = load ptr, ptr %4, align 8, !tbaa !4
  %18 = getelementptr inbounds nuw %struct.MD5Context, ptr %17, i32 0, i32 2
  %19 = getelementptr inbounds [64 x i8], ptr %18, i64 0, i64 0
  %20 = load i32, ptr %5, align 4, !tbaa !9
  %21 = zext i32 %20 to i64
  %22 = getelementptr inbounds nuw i8, ptr %19, i64 %21
  store ptr %22, ptr %6, align 8, !tbaa !11
  %23 = load ptr, ptr %6, align 8, !tbaa !11
  %24 = getelementptr inbounds nuw i8, ptr %23, i32 1
  store ptr %24, ptr %6, align 8, !tbaa !11
  store i8 -128, ptr %23, align 1, !tbaa !17
  %25 = load i32, ptr %5, align 4, !tbaa !9
  %26 = sub i32 63, %25
  store i32 %26, ptr %5, align 4, !tbaa !9
  %27 = load i32, ptr %5, align 4, !tbaa !9
  %28 = icmp ult i32 %27, 8
  br i1 %28, label %29, label %42

29:                                               ; preds = %2
  %30 = load ptr, ptr %6, align 8, !tbaa !11
  %31 = load i32, ptr %5, align 4, !tbaa !9
  %32 = zext i32 %31 to i64
  call void @llvm.memset.p0.i64(ptr align 1 %30, i8 0, i64 %32, i1 false)
  %33 = load ptr, ptr %4, align 8, !tbaa !4
  %34 = getelementptr inbounds nuw %struct.MD5Context, ptr %33, i32 0, i32 0
  %35 = getelementptr inbounds [4 x i32], ptr %34, i64 0, i64 0
  %36 = load ptr, ptr %4, align 8, !tbaa !4
  %37 = getelementptr inbounds nuw %struct.MD5Context, ptr %36, i32 0, i32 2
  %38 = getelementptr inbounds [64 x i8], ptr %37, i64 0, i64 0
  call void @MD5Transform(ptr noundef %35, ptr noundef %38)
  %39 = load ptr, ptr %4, align 8, !tbaa !4
  %40 = getelementptr inbounds nuw %struct.MD5Context, ptr %39, i32 0, i32 2
  %41 = getelementptr inbounds [64 x i8], ptr %40, i64 0, i64 0
  call void @llvm.memset.p0.i64(ptr align 4 %41, i8 0, i64 56, i1 false)
  br label %47

42:                                               ; preds = %2
  %43 = load ptr, ptr %6, align 8, !tbaa !11
  %44 = load i32, ptr %5, align 4, !tbaa !9
  %45 = sub i32 %44, 8
  %46 = zext i32 %45 to i64
  call void @llvm.memset.p0.i64(ptr align 1 %43, i8 0, i64 %46, i1 false)
  br label %47

47:                                               ; preds = %42, %29
  %48 = load ptr, ptr %4, align 8, !tbaa !4
  %49 = getelementptr inbounds nuw %struct.MD5Context, ptr %48, i32 0, i32 1
  %50 = getelementptr inbounds [2 x i32], ptr %49, i64 0, i64 0
  %51 = load i32, ptr %50, align 4, !tbaa !9
  %52 = load ptr, ptr %7, align 8, !tbaa !15
  %53 = getelementptr inbounds i32, ptr %52, i64 14
  store i32 %51, ptr %53, align 4, !tbaa !9
  %54 = load ptr, ptr %4, align 8, !tbaa !4
  %55 = getelementptr inbounds nuw %struct.MD5Context, ptr %54, i32 0, i32 1
  %56 = getelementptr inbounds [2 x i32], ptr %55, i64 0, i64 1
  %57 = load i32, ptr %56, align 4, !tbaa !9
  %58 = load ptr, ptr %7, align 8, !tbaa !15
  %59 = getelementptr inbounds i32, ptr %58, i64 15
  store i32 %57, ptr %59, align 4, !tbaa !9
  %60 = load ptr, ptr %4, align 8, !tbaa !4
  %61 = getelementptr inbounds nuw %struct.MD5Context, ptr %60, i32 0, i32 0
  %62 = getelementptr inbounds [4 x i32], ptr %61, i64 0, i64 0
  %63 = load ptr, ptr %4, align 8, !tbaa !4
  %64 = getelementptr inbounds nuw %struct.MD5Context, ptr %63, i32 0, i32 2
  %65 = getelementptr inbounds [64 x i8], ptr %64, i64 0, i64 0
  call void @MD5Transform(ptr noundef %62, ptr noundef %65)
  %66 = load ptr, ptr %3, align 8, !tbaa !11
  %67 = load ptr, ptr %4, align 8, !tbaa !4
  %68 = getelementptr inbounds nuw %struct.MD5Context, ptr %67, i32 0, i32 0
  %69 = getelementptr inbounds [4 x i32], ptr %68, i64 0, i64 0
  call void @llvm.memcpy.p0.p0.i64(ptr align 1 %66, ptr align 4 %69, i64 16, i1 false)
  %70 = load ptr, ptr %4, align 8, !tbaa !4
  call void @llvm.memset.p0.i64(ptr align 4 %70, i8 0, i64 88, i1 false)
  call void @llvm.lifetime.end.p0(i64 8, ptr %7) #4
  call void @llvm.lifetime.end.p0(i64 8, ptr %6) #4
  call void @llvm.lifetime.end.p0(i64 4, ptr %5) #4
  ret void
}