; Function Attrs: mustprogress nofree norecurse nosync nounwind willreturn memory(argmem: readwrite) uwtable
define dso_local void @MD5Final(ptr noundef writeonly captures(none) initializes((0, 16)) %0, ptr noundef captures(none) %1) local_unnamed_addr #3 {
  %3 = getelementptr inbounds nuw i8, ptr %1, i64 24
  %4 = getelementptr inbounds nuw i8, ptr %1, i64 16
  %5 = load i32, ptr %4, align 4, !tbaa !4
  %6 = lshr i32 %5, 3
  %7 = and i32 %6, 63
  %8 = zext nneg i32 %7 to i64
  %9 = getelementptr inbounds nuw i8, ptr %3, i64 %8
  %10 = getelementptr inbounds nuw i8, ptr %9, i64 1
  store i8 -128, ptr %9, align 1, !tbaa !10
  %11 = xor i32 %7, 63
  %12 = icmp samesign ult i32 %11, 8
  br i1 %12, label %13, label %15

13:                                               ; preds = %2
  %14 = zext nneg i32 %11 to i64
  tail call void @llvm.memset.p0.i64(ptr nonnull align 1 %10, i8 0, i64 %14, i1 false)
  tail call void @MD5Transform(ptr noundef nonnull %1, ptr noundef nonnull %3)
  tail call void @llvm.memset.p0.i64(ptr noundef nonnull align 4 dereferenceable(56) %3, i8 0, i64 56, i1 false)
  %.pre = load i32, ptr %4, align 4, !tbaa !4
  br label %18

15:                                               ; preds = %2
  %16 = sub nsw i32 55, %7
  %17 = zext nneg i32 %16 to i64
  tail call void @llvm.memset.p0.i64(ptr nonnull align 1 %10, i8 0, i64 %17, i1 false)
  br label %18

18:                                               ; preds = %15, %13
  %19 = phi i32 [ %5, %15 ], [ %.pre, %13 ]
  %20 = getelementptr inbounds nuw i8, ptr %1, i64 80
  store i32 %19, ptr %20, align 4, !tbaa !4
  %21 = getelementptr inbounds nuw i8, ptr %1, i64 20
  %22 = load i32, ptr %21, align 4, !tbaa !4
  %23 = getelementptr inbounds nuw i8, ptr %1, i64 84
  store i32 %22, ptr %23, align 4, !tbaa !4
  tail call void @MD5Transform(ptr noundef nonnull %1, ptr noundef nonnull %3)
  tail call void @llvm.memcpy.p0.p0.i64(ptr noundef nonnull align 1 dereferenceable(16) %0, ptr noundef nonnull align 4 dereferenceable(16) %1, i64 16, i1 false)
  tail call void @llvm.memset.p0.i64(ptr noundef nonnull align 4 dereferenceable(88) %1, i8 0, i64 88, i1 false)
  ret void
}